target datalayout = "e-m:e-p270:32:32-p271:32:32-p272:64:64-i64:64-i128:128-f80:128-n8:16:32:64-S128"
target triple = "x86_64-pc-linux-gnu"

%"class.icu_77::number::impl::DecNum" = type { %"class.icu_77::MaybeStackHeaderAndArray", %struct.decContext, [4 x i8] }
%"class.icu_77::MaybeStackHeaderAndArray" = type <{ ptr, i32, i8, [3 x i8], %struct.decNumber, [34 x i8], [2 x i8] }>
%struct.decNumber = type { i32, i32, i8, [1 x i8] }
%struct.decContext = type { i32, i32, i32, i32, i32, i32, i8 }

; Function Attrs: mustprogress nounwind uwtable
define linkonce_odr noundef ptr @_ZNK6icu_7724MaybeStackHeaderAndArrayI9decNumbercLi34EEcvPS1_Ev(ptr noundef nonnull align 8 dereferenceable(62) %0) #0 comdat align 2 {
  %2 = alloca ptr, align 8
  store ptr %0, ptr %2, align 8, !tbaa !48
  %3 = load ptr, ptr %2, align 8
  %4 = getelementptr inbounds nuw %"class.icu_77::MaybeStackHeaderAndArray", ptr %3, i32 0, i32 0
  %5 = load ptr, ptr %4, align 8, !tbaa !50
  ret ptr %5
}

; Function Attrs: mustprogress uwtable
define void @_ZN6icu_776number4impl6DecNum10multiplyByERKS2_R10UErrorCode(ptr noundef nonnull align 8 dereferenceable(92) %0, ptr noundef nonnull align 8 dereferenceable(92) %1, ptr noundef nonnull align 4 dereferenceable(4) %2) #1 align 2 {
  %4 = alloca ptr, align 8
  %5 = alloca ptr, align 8
  %6 = alloca ptr, align 8
  store ptr %0, ptr %4, align 8, !tbaa !40
  store ptr %1, ptr %5, align 8, !tbaa !40
  store ptr %2, ptr %6, align 8, !tbaa !22
  %7 = load ptr, ptr %4, align 8
  %8 = getelementptr inbounds nuw %"class.icu_77::number::impl::DecNum", ptr %7, i32 0, i32 0
  %9 = call noundef ptr @_ZNK6icu_7724MaybeStackHeaderAndArrayI9decNumbercLi34EEcvPS1_Ev(ptr noundef nonnull align 8 dereferenceable(62) %8)
  %10 = getelementptr inbounds nuw %"class.icu_77::number::impl::DecNum", ptr %7, i32 0, i32 0
  %11 = call noundef ptr @_ZNK6icu_7724MaybeStackHeaderAndArrayI9decNumbercLi34EEcvPS1_Ev(ptr noundef nonnull align 8 dereferenceable(62) %10)
  %12 = load ptr, ptr %5, align 8, !tbaa !40
  %13 = getelementptr inbounds nuw %"class.icu_77::number::impl::DecNum", ptr %12, i32 0, i32 0
  %14 = call noundef ptr @_ZNK6icu_7724MaybeStackHeaderAndArrayI9decNumbercLi34EEcvPS1_Ev(ptr noundef nonnull align 8 dereferenceable(62) %13)
  %15 = getelementptr inbounds nuw %"class.icu_77::number::impl::DecNum", ptr %7, i32 0, i32 1
  %16 = call ptr @uprv_decNumberMultiply_77(ptr noundef %9, ptr noundef %11, ptr noundef %14, ptr noundef %15)
  %17 = getelementptr inbounds nuw %"class.icu_77::number::impl::DecNum", ptr %7, i32 0, i32 1
  %18 = getelementptr inbounds nuw %struct.decContext, ptr %17, i32 0, i32 5
  %19 = load i32, ptr %18, align 4, !tbaa !61
  %20 = icmp ne i32 %19, 0
  br i1 %20, label %21, label %23

21:                                               ; preds = %3
  %22 = load ptr, ptr %6, align 8, !tbaa !22
  store i32 5, ptr %22, align 4, !tbaa !15
  br label %23

23:                                               ; preds = %21, %3
  ret void
}